target datalayout = "e-m:e-p270:32:32-p271:32:32-p272:64:64-i64:64-i128:128-f80:128-n8:16:32:64-S128"
target triple = "x86_64-pc-linux-gnu"

%struct._object = type { %union.anon, ptr }
%union.anon = type { i64 }
%struct.PyVarObject = type { %struct._object, i64 }
%struct.PyTupleObject = type { %struct.PyVarObject, [1 x ptr] }
%struct._typeobject = type { %struct.PyVarObject, ptr, i64, i64, ptr, i64, ptr, ptr, ptr, ptr, ptr, ptr, ptr, ptr, ptr, ptr, ptr, ptr, ptr, i64, ptr, ptr, ptr, ptr, i64, ptr, ptr, ptr, ptr, ptr, ptr, ptr, ptr, ptr, i64, ptr, ptr, ptr, ptr, ptr, ptr, ptr, ptr, ptr, ptr, ptr, i32, ptr, ptr, i8, i16 }
%struct.gaobject = type { %struct._object, ptr, ptr, ptr, ptr, i8, ptr }
%struct.PyListObject = type { %struct.PyVarObject, ptr, i64 }

@.str.12 = private unnamed_addr constant [3 x i8] c", \00", align 1
@PyList_Type = external global %struct._typeobject, align 8
@.str.13 = private unnamed_addr constant [3 x i8] c"()\00", align 1

; Function Attrs: inlinehint nounwind uwtable
define internal i64 @PyList_GET_SIZE(ptr noundef %0) #2 {
  %2 = alloca ptr, align 8
  %3 = alloca ptr, align 8
  store ptr %0, ptr %2, align 8, !tbaa !4
  call void @llvm.lifetime.start.p0(i64 8, ptr %3) #5
  %4 = load ptr, ptr %2, align 8, !tbaa !4
  store ptr %4, ptr %3, align 8, !tbaa !16
  %5 = load ptr, ptr %3, align 8, !tbaa !16
  %6 = call i64 @Py_SIZE(ptr noundef %5)
  call void @llvm.lifetime.end.p0(i64 8, ptr %3) #5
  ret i64 %6
}

; Function Attrs: inlinehint nounwind uwtable
define internal ptr @_Py_TYPE(ptr noundef %0) #2 {
  %2 = alloca ptr, align 8
  store ptr %0, ptr %2, align 8, !tbaa !4
  %3 = load ptr, ptr %2, align 8, !tbaa !4
  %4 = getelementptr inbounds nuw %struct._object, ptr %3, i32 0, i32 1
  %5 = load ptr, ptr %4, align 8, !tbaa !29
  ret ptr %5
}

; Function Attrs: inlinehint nounwind uwtable
define internal i64 @Py_SIZE(ptr noundef %0) #2 {
  %2 = alloca ptr, align 8
  store ptr %0, ptr %2, align 8, !tbaa !4
  %3 = load ptr, ptr %2, align 8, !tbaa !4
  %4 = getelementptr inbounds nuw %struct.PyVarObject, ptr %3, i32 0, i32 1
  %5 = load i64, ptr %4, align 8, !tbaa !59
  ret i64 %5
}

; Function Attrs: nounwind uwtable
define internal i32 @ga_repr_items_list(ptr noundef %0, ptr noundef %1) #0 {
  %3 = alloca i32, align 4
  %4 = alloca ptr, align 8
  %5 = alloca ptr, align 8
  %6 = alloca i64, align 8
  %7 = alloca i32, align 4
  %8 = alloca i64, align 8
  %9 = alloca ptr, align 8
  store ptr %0, ptr %4, align 8, !tbaa !49
  store ptr %1, ptr %5, align 8, !tbaa !4
  call void @llvm.lifetime.start.p0(i64 8, ptr %6) #5
  %10 = load ptr, ptr %5, align 8, !tbaa !4
  %11 = call i64 @PyList_GET_SIZE(ptr noundef %10)
  store i64 %11, ptr %6, align 8, !tbaa !9
  %12 = load ptr, ptr %4, align 8, !tbaa !49
  %13 = call i32 @PyUnicodeWriter_WriteChar(ptr noundef %12, i32 noundef 91)
  %14 = icmp slt i32 %13, 0
  br i1 %14, label %15, label %16

15:                                               ; preds = %2
  store i32 -1, ptr %3, align 4
  store i32 1, ptr %7, align 4
  br label %58

16:                                               ; preds = %2
  call void @llvm.lifetime.start.p0(i64 8, ptr %8) #5
  store i64 0, ptr %8, align 8, !tbaa !9
  br label %17

17:                                               ; preds = %47, %16
  %18 = load i64, ptr %8, align 8, !tbaa !9
  %19 = load i64, ptr %6, align 8, !tbaa !9
  %20 = icmp slt i64 %18, %19
  br i1 %20, label %22, label %21

21:                                               ; preds = %17
  store i32 2, ptr %7, align 4
  br label %50

22:                                               ; preds = %17
  %23 = load i64, ptr %8, align 8, !tbaa !9
  %24 = icmp sgt i64 %23, 0
  br i1 %24, label %25, label %31

25:                                               ; preds = %22
  %26 = load ptr, ptr %4, align 8, !tbaa !49
  %27 = call i32 @PyUnicodeWriter_WriteUTF8(ptr noundef %26, ptr noundef @.str.12, i64 noundef 2)
  %28 = icmp slt i32 %27, 0
  br i1 %28, label %29, label %30

29:                                               ; preds = %25
  store i32 -1, ptr %3, align 4
  store i32 1, ptr %7, align 4
  br label %50

30:                                               ; preds = %25
  br label %31

31:                                               ; preds = %30, %22
  call void @llvm.lifetime.start.p0(i64 8, ptr %9) #5
  %32 = load ptr, ptr %5, align 8, !tbaa !4
  %33 = getelementptr inbounds nuw %struct.PyListObject, ptr %32, i32 0, i32 1
  %34 = load ptr, ptr %33, align 8, !tbaa !63
  %35 = load i64, ptr %8, align 8, !tbaa !9
  %36 = getelementptr ptr, ptr %34, i64 %35
  %37 = load ptr, ptr %36, align 8, !tbaa !4
  store ptr %37, ptr %9, align 8, !tbaa !4
  %38 = load ptr, ptr %4, align 8, !tbaa !49
  %39 = load ptr, ptr %9, align 8, !tbaa !4
  %40 = call i32 @_Py_typing_type_repr(ptr noundef %38, ptr noundef %39)
  %41 = icmp slt i32 %40, 0
  br i1 %41, label %42, label %43

42:                                               ; preds = %31
  store i32 -1, ptr %3, align 4
  store i32 1, ptr %7, align 4
  br label %44

43:                                               ; preds = %31
  store i32 0, ptr %7, align 4
  br label %44

44:                                               ; preds = %43, %42
  call void @llvm.lifetime.end.p0(i64 8, ptr %9) #5
  %45 = load i32, ptr %7, align 4
  switch i32 %45, label %50 [
    i32 0, label %46
  ]

46:                                               ; preds = %44
  br label %47

47:                                               ; preds = %46
  %48 = load i64, ptr %8, align 8, !tbaa !9
  %49 = add i64 %48, 1
  store i64 %49, ptr %8, align 8, !tbaa !9
  br label %17, !llvm.loop !65

50:                                               ; preds = %44, %29, %21
  call void @llvm.lifetime.end.p0(i64 8, ptr %8) #5
  %51 = load i32, ptr %7, align 4
  switch i32 %51, label %58 [
    i32 2, label %52
  ]

52:                                               ; preds = %50
  %53 = load ptr, ptr %4, align 8, !tbaa !49
  %54 = call i32 @PyUnicodeWriter_WriteChar(ptr noundef %53, i32 noundef 93)
  %55 = icmp slt i32 %54, 0
  br i1 %55, label %56, label %57

56:                                               ; preds = %52
  store i32 -1, ptr %3, align 4
  store i32 1, ptr %7, align 4
  br label %58

57:                                               ; preds = %52
  store i32 0, ptr %3, align 4
  store i32 1, ptr %7, align 4
  br label %58

58:                                               ; preds = %57, %56, %50, %15
  call void @llvm.lifetime.end.p0(i64 8, ptr %6) #5
  %59 = load i32, ptr %3, align 4
  ret i32 %59
}

; Function Attrs: inlinehint nounwind uwtable
define internal i32 @Py_IS_TYPE(ptr noundef %0, ptr noundef %1) #2 {
  %3 = alloca ptr, align 8
  %4 = alloca ptr, align 8
  store ptr %0, ptr %3, align 8, !tbaa !4
  store ptr %1, ptr %4, align 8, !tbaa !18
  %5 = load ptr, ptr %3, align 8, !tbaa !4
  %6 = call ptr @_Py_TYPE(ptr noundef %5)
  %7 = load ptr, ptr %4, align 8, !tbaa !18
  %8 = icmp eq ptr %6, %7
  %9 = zext i1 %8 to i32
  ret i32 %9
}

; Function Attrs: inlinehint nounwind uwtable
define internal i64 @PyTuple_GET_SIZE(ptr noundef %0) #2 {
  %2 = alloca ptr, align 8
  %3 = alloca ptr, align 8
  store ptr %0, ptr %2, align 8, !tbaa !4
  call void @llvm.lifetime.start.p0(i64 8, ptr %3) #5
  %4 = load ptr, ptr %2, align 8, !tbaa !4
  store ptr %4, ptr %3, align 8, !tbaa !16
  %5 = load ptr, ptr %3, align 8, !tbaa !16
  %6 = call i64 @Py_SIZE(ptr noundef %5)
  call void @llvm.lifetime.end.p0(i64 8, ptr %3) #5
  ret i64 %6
}

; Function Attrs: nounwind uwtable
define internal ptr @ga_repr(ptr noundef %0) #0 {
  %2 = alloca ptr, align 8
  %3 = alloca ptr, align 8
  %4 = alloca ptr, align 8
  %5 = alloca i64, align 8
  %6 = alloca i64, align 8
  %7 = alloca ptr, align 8
  %8 = alloca i32, align 4
  %9 = alloca i64, align 8
  %10 = alloca ptr, align 8
  store ptr %0, ptr %3, align 8, !tbaa !4
  call void @llvm.lifetime.start.p0(i64 8, ptr %4) #5
  %11 = load ptr, ptr %3, align 8, !tbaa !4
  store ptr %11, ptr %4, align 8, !tbaa !16
  call void @llvm.lifetime.start.p0(i64 8, ptr %5) #5
  %12 = load ptr, ptr %4, align 8, !tbaa !16
  %13 = getelementptr inbounds nuw %struct.gaobject, ptr %12, i32 0, i32 2
  %14 = load ptr, ptr %13, align 8, !tbaa !44
  %15 = call i64 @PyTuple_GET_SIZE(ptr noundef %14)
  store i64 %15, ptr %5, align 8, !tbaa !9
  call void @llvm.lifetime.start.p0(i64 8, ptr %6) #5
  %16 = load i64, ptr %5, align 8, !tbaa !9
  %17 = icmp sle i64 %16, 1844674407370955161
  br i1 %17, label %18, label %21

18:                                               ; preds = %1
  %19 = load i64, ptr %5, align 8, !tbaa !9
  %20 = mul i64 %19, 5
  br label %23

21:                                               ; preds = %1
  %22 = load i64, ptr %5, align 8, !tbaa !9
  br label %23

23:                                               ; preds = %21, %18
  %24 = phi i64 [ %20, %18 ], [ %22, %21 ]
  store i64 %24, ptr %6, align 8, !tbaa !9
  %25 = load i64, ptr %6, align 8, !tbaa !9
  %26 = add i64 4, %25
  %27 = add i64 %26, 1
  store i64 %27, ptr %6, align 8, !tbaa !9
  call void @llvm.lifetime.start.p0(i64 8, ptr %7) #5
  %28 = load i64, ptr %6, align 8, !tbaa !9
  %29 = call ptr @PyUnicodeWriter_Create(i64 noundef %28)
  store ptr %29, ptr %7, align 8, !tbaa !49
  %30 = load ptr, ptr %7, align 8, !tbaa !49
  %31 = icmp eq ptr %30, null
  br i1 %31, label %32, label %33

32:                                               ; preds = %23
  store ptr null, ptr %2, align 8
  store i32 1, ptr %8, align 4
  br label %125

33:                                               ; preds = %23
  %34 = load ptr, ptr %4, align 8, !tbaa !16
  %35 = getelementptr inbounds nuw %struct.gaobject, ptr %34, i32 0, i32 5
  %36 = load i8, ptr %35, align 8, !tbaa !45, !range !51, !noundef !52
  %37 = trunc i8 %36 to i1
  br i1 %37, label %38, label %44

38:                                               ; preds = %33
  %39 = load ptr, ptr %7, align 8, !tbaa !49
  %40 = call i32 @PyUnicodeWriter_WriteChar(ptr noundef %39, i32 noundef 42)
  %41 = icmp slt i32 %40, 0
  br i1 %41, label %42, label %43

42:                                               ; preds = %38
  br label %123

43:                                               ; preds = %38
  br label %44

44:                                               ; preds = %43, %33
  %45 = load ptr, ptr %7, align 8, !tbaa !49
  %46 = load ptr, ptr %4, align 8, !tbaa !16
  %47 = getelementptr inbounds nuw %struct.gaobject, ptr %46, i32 0, i32 1
  %48 = load ptr, ptr %47, align 8, !tbaa !41
  %49 = call i32 @_Py_typing_type_repr(ptr noundef %45, ptr noundef %48)
  %50 = icmp slt i32 %49, 0
  br i1 %50, label %51, label %52

51:                                               ; preds = %44
  br label %123

52:                                               ; preds = %44
  %53 = load ptr, ptr %7, align 8, !tbaa !49
  %54 = call i32 @PyUnicodeWriter_WriteChar(ptr noundef %53, i32 noundef 91)
  %55 = icmp slt i32 %54, 0
  br i1 %55, label %56, label %57

56:                                               ; preds = %52
  br label %123

57:                                               ; preds = %52
  call void @llvm.lifetime.start.p0(i64 8, ptr %9) #5
  store i64 0, ptr %9, align 8, !tbaa !9
  br label %58

58:                                               ; preds = %101, %57
  %59 = load i64, ptr %9, align 8, !tbaa !9
  %60 = load i64, ptr %5, align 8, !tbaa !9
  %61 = icmp slt i64 %59, %60
  br i1 %61, label %63, label %62

62:                                               ; preds = %58
  store i32 3, ptr %8, align 4
  br label %104

63:                                               ; preds = %58
  %64 = load i64, ptr %9, align 8, !tbaa !9
  %65 = icmp sgt i64 %64, 0
  br i1 %65, label %66, label %72

66:                                               ; preds = %63
  %67 = load ptr, ptr %7, align 8, !tbaa !49
  %68 = call i32 @PyUnicodeWriter_WriteUTF8(ptr noundef %67, ptr noundef @.str.12, i64 noundef 2)
  %69 = icmp slt i32 %68, 0
  br i1 %69, label %70, label %71

70:                                               ; preds = %66
  store i32 2, ptr %8, align 4
  br label %104

71:                                               ; preds = %66
  br label %72

72:                                               ; preds = %71, %63
  call void @llvm.lifetime.start.p0(i64 8, ptr %10) #5
  %73 = load ptr, ptr %4, align 8, !tbaa !16
  %74 = getelementptr inbounds nuw %struct.gaobject, ptr %73, i32 0, i32 2
  %75 = load ptr, ptr %74, align 8, !tbaa !44
  %76 = getelementptr inbounds nuw %struct.PyTupleObject, ptr %75, i32 0, i32 1
  %77 = load i64, ptr %9, align 8, !tbaa !9
  %78 = getelementptr [1 x ptr], ptr %76, i64 0, i64 %77
  %79 = load ptr, ptr %78, align 8, !tbaa !4
  store ptr %79, ptr %10, align 8, !tbaa !4
  %80 = load ptr, ptr %10, align 8, !tbaa !4
  %81 = call i32 @Py_IS_TYPE(ptr noundef %80, ptr noundef @PyList_Type)
  %82 = icmp ne i32 %81, 0
  br i1 %82, label %83, label %90

83:                                               ; preds = %72
  %84 = load ptr, ptr %7, align 8, !tbaa !49
  %85 = load ptr, ptr %10, align 8, !tbaa !4
  %86 = call i32 @ga_repr_items_list(ptr noundef %84, ptr noundef %85)
  %87 = icmp slt i32 %86, 0
  br i1 %87, label %88, label %89

88:                                               ; preds = %83
  store i32 2, ptr %8, align 4
  br label %98

89:                                               ; preds = %83
  br label %97

90:                                               ; preds = %72
  %91 = load ptr, ptr %7, align 8, !tbaa !49
  %92 = load ptr, ptr %10, align 8, !tbaa !4
  %93 = call i32 @_Py_typing_type_repr(ptr noundef %91, ptr noundef %92)
  %94 = icmp slt i32 %93, 0
  br i1 %94, label %95, label %96

95:                                               ; preds = %90
  store i32 2, ptr %8, align 4
  br label %98

96:                                               ; preds = %90
  br label %97

97:                                               ; preds = %96, %89
  store i32 0, ptr %8, align 4
  br label %98

98:                                               ; preds = %95, %88, %97
  call void @llvm.lifetime.end.p0(i64 8, ptr %10) #5
  %99 = load i32, ptr %8, align 4
  switch i32 %99, label %104 [
    i32 0, label %100
  ]

100:                                              ; preds = %98
  br label %101

101:                                              ; preds = %100
  %102 = load i64, ptr %9, align 8, !tbaa !9
  %103 = add i64 %102, 1
  store i64 %103, ptr %9, align 8, !tbaa !9
  br label %58, !llvm.loop !53

104:                                              ; preds = %70, %98, %62
  call void @llvm.lifetime.end.p0(i64 8, ptr %9) #5
  %105 = load i32, ptr %8, align 4
  switch i32 %105, label %125 [
    i32 3, label %106
    i32 2, label %123
  ]

106:                                              ; preds = %104
  %107 = load i64, ptr %5, align 8, !tbaa !9
  %108 = icmp eq i64 %107, 0
  br i1 %108, label %109, label %115

109:                                              ; preds = %106
  %110 = load ptr, ptr %7, align 8, !tbaa !49
  %111 = call i32 @PyUnicodeWriter_WriteUTF8(ptr noundef %110, ptr noundef @.str.13, i64 noundef 2)
  %112 = icmp slt i32 %111, 0
  br i1 %112, label %113, label %114

113:                                              ; preds = %109
  br label %123

114:                                              ; preds = %109
  br label %115

115:                                              ; preds = %114, %106
  %116 = load ptr, ptr %7, align 8, !tbaa !49
  %117 = call i32 @PyUnicodeWriter_WriteChar(ptr noundef %116, i32 noundef 93)
  %118 = icmp slt i32 %117, 0
  br i1 %118, label %119, label %120

119:                                              ; preds = %115
  br label %123

120:                                              ; preds = %115
  %121 = load ptr, ptr %7, align 8, !tbaa !49
  %122 = call ptr @PyUnicodeWriter_Finish(ptr noundef %121)
  store ptr %122, ptr %2, align 8
  store i32 1, ptr %8, align 4
  br label %125

123:                                              ; preds = %104, %119, %113, %56, %51, %42
  %124 = load ptr, ptr %7, align 8, !tbaa !49
  call void @PyUnicodeWriter_Discard(ptr noundef %124)
  store ptr null, ptr %2, align 8
  store i32 1, ptr %8, align 4
  br label %125

125:                                              ; preds = %123, %120, %104, %32
  call void @llvm.lifetime.end.p0(i64 8, ptr %7) #5
  call void @llvm.lifetime.end.p0(i64 8, ptr %6) #5
  call void @llvm.lifetime.end.p0(i64 8, ptr %5) #5
  call void @llvm.lifetime.end.p0(i64 8, ptr %4) #5
  %126 = load ptr, ptr %2, align 8
  ret ptr %126
}