; Function Attrs: nounwind uwtable
define internal ptr @ga_repr(ptr noundef readonly captures(none) %0) #0 {
  %2 = getelementptr inbounds nuw i8, ptr %0, i64 24
  %3 = load ptr, ptr %2, align 8, !tbaa !34
  %4 = getelementptr i8, ptr %3, i64 16
  %.val = load i64, ptr %4, align 8, !tbaa !4
  %5 = icmp slt i64 %.val, 1844674407370955162
  %6 = mul i64 %.val, 5
  %7 = select i1 %5, i64 %6, i64 %.val
  %8 = add i64 %7, 5
  %9 = tail call ptr @PyUnicodeWriter_Create(i64 noundef %8) #5
  %10 = icmp eq ptr %9, null
  br i1 %10, label %68, label %11

11:                                               ; preds = %1
  %12 = getelementptr inbounds nuw i8, ptr %0, i64 48
  %13 = load i8, ptr %12, align 8, !tbaa !28, !range !31, !noundef !32
  %14 = trunc nuw i8 %13 to i1
  br i1 %14, label %15, label %18

15:                                               ; preds = %11
  %16 = tail call i32 @PyUnicodeWriter_WriteChar(ptr noundef nonnull %9, i32 noundef 42) #5
  %17 = icmp slt i32 %16, 0
  br i1 %17, label %.thread40, label %18

18:                                               ; preds = %15, %11
  %19 = getelementptr inbounds nuw i8, ptr %0, i64 16
  %20 = load ptr, ptr %19, align 8, !tbaa !33
  %21 = tail call i32 @_Py_typing_type_repr(ptr noundef nonnull %9, ptr noundef %20) #5
  %22 = icmp slt i32 %21, 0
  br i1 %22, label %.thread40, label %23

23:                                               ; preds = %18
  %24 = tail call i32 @PyUnicodeWriter_WriteChar(ptr noundef nonnull %9, i32 noundef 91) #5
  %25 = icmp slt i32 %24, 0
  br i1 %25, label %.thread40, label %.preheader

.preheader:                                       ; preds = %23
  %26 = icmp sgt i64 %.val, 0
  br i1 %26, label %.lr.ph, label %._crit_edge

.lr.ph:                                           ; preds = %.preheader, %58
  %.03243 = phi i64 [ %59, %58 ], [ 0, %.preheader ]
  %.not45 = icmp eq i64 %.03243, 0
  br i1 %.not45, label %30, label %27

27:                                               ; preds = %.lr.ph
  %28 = tail call i32 @PyUnicodeWriter_WriteUTF8(ptr noundef nonnull %9, ptr noundef nonnull @.str.12, i64 noundef 2) #5
  %29 = icmp slt i32 %28, 0
  br i1 %29, label %.thread40, label %30

30:                                               ; preds = %27, %.lr.ph
  %31 = load ptr, ptr %2, align 8, !tbaa !34
  %32 = getelementptr inbounds nuw i8, ptr %31, i64 24
  %33 = getelementptr [1 x ptr], ptr %32, i64 0, i64 %.03243
  %34 = load ptr, ptr %33, align 8, !tbaa !12
  %35 = getelementptr i8, ptr %34, i64 8
  %.val35 = load ptr, ptr %35, align 8, !tbaa !14
  %.not = icmp eq ptr %.val35, @PyList_Type
  br i1 %.not, label %36, label %55

36:                                               ; preds = %30
  %37 = getelementptr i8, ptr %34, i64 16
  %.val.i = load i64, ptr %37, align 8, !tbaa !4
  %38 = tail call i32 @PyUnicodeWriter_WriteChar(ptr noundef nonnull %9, i32 noundef 91) #5
  %39 = icmp slt i32 %38, 0
  br i1 %39, label %.thread40, label %.preheader.i

.preheader.i:                                     ; preds = %36
  %.not19.i = icmp sgt i64 %.val.i, 0
  br i1 %.not19.i, label %.lr.ph.i, label %ga_repr_items_list.exit

.lr.ph.i:                                         ; preds = %.preheader.i
  %40 = getelementptr inbounds nuw i8, ptr %34, i64 24
  br label %43

41:                                               ; preds = %47
  %42 = add nuw nsw i64 %.01520.i, 1
  %exitcond.not.i = icmp eq i64 %42, %.val.i
  br i1 %exitcond.not.i, label %ga_repr_items_list.exit, label %43, !llvm.loop !49

43:                                               ; preds = %41, %.lr.ph.i
  %.01520.i = phi i64 [ 0, %.lr.ph.i ], [ %42, %41 ]
  %.not18.i = icmp eq i64 %.01520.i, 0
  br i1 %.not18.i, label %47, label %44

44:                                               ; preds = %43
  %45 = tail call i32 @PyUnicodeWriter_WriteUTF8(ptr noundef nonnull %9, ptr noundef nonnull @.str.12, i64 noundef 2) #5
  %46 = icmp slt i32 %45, 0
  br i1 %46, label %.thread40, label %47

47:                                               ; preds = %44, %43
  %48 = load ptr, ptr %40, align 8, !tbaa !50
  %49 = getelementptr ptr, ptr %48, i64 %.01520.i
  %50 = load ptr, ptr %49, align 8, !tbaa !12
  %51 = tail call i32 @_Py_typing_type_repr(ptr noundef nonnull %9, ptr noundef %50) #5
  %52 = icmp sgt i32 %51, -1
  br i1 %52, label %41, label %.thread40

ga_repr_items_list.exit:                          ; preds = %41, %.preheader.i
  %53 = tail call i32 @PyUnicodeWriter_WriteChar(ptr noundef nonnull %9, i32 noundef 93) #5
  %54 = icmp slt i32 %53, 0
  br i1 %54, label %.thread40, label %58

55:                                               ; preds = %30
  %56 = tail call i32 @_Py_typing_type_repr(ptr noundef nonnull %9, ptr noundef nonnull %34) #5
  %57 = icmp slt i32 %56, 0
  br i1 %57, label %.thread40, label %58

58:                                               ; preds = %55, %ga_repr_items_list.exit
  %59 = add nuw nsw i64 %.03243, 1
  %exitcond.not = icmp eq i64 %59, %.val
  br i1 %exitcond.not, label %._crit_edge.thread, label %.lr.ph, !llvm.loop !53

._crit_edge:                                      ; preds = %.preheader
  %60 = icmp eq i64 %.val, 0
  br i1 %60, label %61, label %._crit_edge.thread

61:                                               ; preds = %._crit_edge
  %62 = tail call i32 @PyUnicodeWriter_WriteUTF8(ptr noundef nonnull %9, ptr noundef nonnull @.str.13, i64 noundef 2) #5
  %63 = icmp slt i32 %62, 0
  br i1 %63, label %.thread40, label %._crit_edge.thread

._crit_edge.thread:                               ; preds = %58, %61, %._crit_edge
  %64 = tail call i32 @PyUnicodeWriter_WriteChar(ptr noundef nonnull %9, i32 noundef 93) #5
  %65 = icmp slt i32 %64, 0
  br i1 %65, label %.thread40, label %66

66:                                               ; preds = %._crit_edge.thread
  %67 = tail call ptr @PyUnicodeWriter_Finish(ptr noundef nonnull %9) #5
  br label %68

.thread40:                                        ; preds = %36, %55, %ga_repr_items_list.exit, %27, %47, %44, %._crit_edge.thread, %61, %23, %18, %15
  tail call void @PyUnicodeWriter_Discard(ptr noundef nonnull %9) #5
  br label %68

68:                                               ; preds = %1, %.thread40, %66
  %.0 = phi ptr [ null, %.thread40 ], [ %67, %66 ], [ null, %1 ]
  ret ptr %.0
}